target datalayout = "e-m:e-p270:32:32-p271:32:32-p272:64:64-i64:64-i128:128-f80:128-n8:16:32:64-S128"
target triple = "x86_64-pc-linux-gnu"

%"class.clang::HLSLExternalSemaSource" = type { %"class.clang::ExternalSemaSource", ptr, ptr, %"class.llvm::DenseMap" }
%"class.clang::ExternalSemaSource" = type { %"class.clang::ExternalASTSource" }
%"class.clang::ExternalASTSource" = type { ptr, %"class.llvm::RefCountedBase", i32 }
%"class.llvm::RefCountedBase" = type { i32 }
%"class.llvm::DenseMap" = type <{ ptr, i32, i32, i32, [4 x i8] }>
%"class.std::_Function_base" = type { %"union.std::_Any_data", ptr }
%"union.std::_Any_data" = type { %"union.std::_Nocopy_types" }
%"union.std::_Nocopy_types" = type { { i64, i64 } }
%"class.std::function.1065" = type { %"class.std::_Function_base", ptr }
%"struct.std::pair.1068" = type { ptr, %"class.std::function.1065" }
%"struct.llvm::detail::DenseMapPair" = type { %"struct.std::pair.1068" }

; Function Attrs: mustprogress nounwind uwtable
define linkonce_odr hidden void @_ZNSt14_Function_baseD2Ev(ptr noundef nonnull align 8 dereferenceable(24) %0) unnamed_addr #0 comdat align 2 {
  %2 = alloca ptr, align 8
  store ptr %0, ptr %2, align 8
  %3 = load ptr, ptr %2, align 8
  %4 = getelementptr inbounds nuw %"class.std::_Function_base", ptr %3, i32 0, i32 1
  %5 = load ptr, ptr %4, align 8
  %6 = icmp ne ptr %5, null
  br i1 %6, label %7, label %13

7:                                                ; preds = %1
  %8 = getelementptr inbounds nuw %"class.std::_Function_base", ptr %3, i32 0, i32 1
  %9 = load ptr, ptr %8, align 8
  %10 = getelementptr inbounds nuw %"class.std::_Function_base", ptr %3, i32 0, i32 0
  %11 = getelementptr inbounds nuw %"class.std::_Function_base", ptr %3, i32 0, i32 0
  %12 = call noundef zeroext i1 %9(ptr noundef nonnull align 8 dereferenceable(16) %10, ptr noundef nonnull align 8 dereferenceable(16) %11, i32 noundef 3)
  br label %13

13:                                               ; preds = %7, %1
  ret void
}

; Function Attrs: mustprogress nounwind uwtable
define linkonce_odr hidden noundef ptr @_ZNK4llvm8DenseMapIPN5clang13CXXRecordDeclESt8functionIFvS3_EENS_12DenseMapInfoIS3_vEENS_6detail12DenseMapPairIS3_S6_EEE10getBucketsEv(ptr noundef nonnull align 8 dereferenceable(20) %0) #0 comdat align 2 {
  %2 = alloca ptr, align 8
  store ptr %0, ptr %2, align 8
  %3 = load ptr, ptr %2, align 8
  %4 = getelementptr inbounds nuw %"class.llvm::DenseMap", ptr %3, i32 0, i32 0
  %5 = load ptr, ptr %4, align 8
  ret ptr %5
}

; Function Attrs: mustprogress nounwind uwtable
define linkonce_odr hidden noundef ptr @_ZN4llvm12DenseMapInfoIPN5clang13CXXRecordDeclEvE15getTombstoneKeyEv() #0 comdat align 2 {
  %1 = alloca i64, align 8
  store i64 -2, ptr %1, align 8
  %2 = load i64, ptr %1, align 8
  %3 = shl i64 %2, 12
  store i64 %3, ptr %1, align 8
  %4 = load i64, ptr %1, align 8
  %5 = inttoptr i64 %4 to ptr
  ret ptr %5
}

; Function Attrs: mustprogress nounwind uwtable
define linkonce_odr hidden noundef ptr @_ZN4llvm12DenseMapInfoIPN5clang13CXXRecordDeclEvE11getEmptyKeyEv() #0 comdat align 2 {
  %1 = alloca i64, align 8
  store i64 -1, ptr %1, align 8
  %2 = load i64, ptr %1, align 8
  %3 = shl i64 %2, 12
  store i64 %3, ptr %1, align 8
  %4 = load i64, ptr %1, align 8
  %5 = inttoptr i64 %4 to ptr
  ret ptr %5
}

; Function Attrs: mustprogress nounwind uwtable
define linkonce_odr hidden noundef i32 @_ZNK4llvm8DenseMapIPN5clang13CXXRecordDeclESt8functionIFvS3_EENS_12DenseMapInfoIS3_vEENS_6detail12DenseMapPairIS3_S6_EEE13getNumBucketsEv(ptr noundef nonnull align 8 dereferenceable(20) %0) #0 comdat align 2 {
  %2 = alloca ptr, align 8
  store ptr %0, ptr %2, align 8
  %3 = load ptr, ptr %2, align 8
  %4 = getelementptr inbounds nuw %"class.llvm::DenseMap", ptr %3, i32 0, i32 3
  %5 = load i32, ptr %4, align 8
  ret i32 %5
}

; Function Attrs: mustprogress nounwind uwtable
define linkonce_odr hidden void @_ZNSt8functionIFvPN5clang13CXXRecordDeclEEED2Ev(ptr noundef nonnull align 8 dereferenceable(32) %0) unnamed_addr #0 comdat align 2 {
  %2 = alloca ptr, align 8
  store ptr %0, ptr %2, align 8
  %3 = load ptr, ptr %2, align 8
  call void @_ZNSt14_Function_baseD2Ev(ptr noundef nonnull align 8 dereferenceable(24) %3) #10
  ret void
}

; Function Attrs: mustprogress nounwind uwtable
define linkonce_odr hidden noundef nonnull align 8 dereferenceable(32) ptr @_ZN4llvm6detail12DenseMapPairIPN5clang13CXXRecordDeclESt8functionIFvS4_EEE9getSecondEv(ptr noundef nonnull align 8 dereferenceable(40) %0) #0 comdat align 2 {
  %2 = alloca ptr, align 8
  store ptr %0, ptr %2, align 8
  %3 = load ptr, ptr %2, align 8
  %4 = getelementptr inbounds nuw %"struct.std::pair.1068", ptr %3, i32 0, i32 1
  ret ptr %4
}

; Function Attrs: mustprogress nounwind uwtable
define linkonce_odr hidden noundef zeroext i1 @_ZN4llvm12DenseMapInfoIPN5clang13CXXRecordDeclEvE7isEqualEPKS2_S6_(ptr noundef %0, ptr noundef %1) #0 comdat align 2 {
  %3 = alloca ptr, align 8
  %4 = alloca ptr, align 8
  store ptr %0, ptr %3, align 8
  store ptr %1, ptr %4, align 8
  %5 = load ptr, ptr %3, align 8
  %6 = load ptr, ptr %4, align 8
  %7 = icmp eq ptr %5, %6
  ret i1 %7
}

; Function Attrs: mustprogress nounwind uwtable
define linkonce_odr hidden noundef nonnull align 8 dereferenceable(8) ptr @_ZN4llvm6detail12DenseMapPairIPN5clang13CXXRecordDeclESt8functionIFvS4_EEE8getFirstEv(ptr noundef nonnull align 8 dereferenceable(40) %0) #0 comdat align 2 {
  %2 = alloca ptr, align 8
  store ptr %0, ptr %2, align 8
  %3 = load ptr, ptr %2, align 8
  %4 = getelementptr inbounds nuw %"struct.std::pair.1068", ptr %3, i32 0, i32 0
  ret ptr %4
}

; Function Attrs: mustprogress nounwind uwtable
define linkonce_odr hidden noundef ptr @_ZN4llvm12DenseMapBaseINS_8DenseMapIPN5clang13CXXRecordDeclESt8functionIFvS4_EENS_12DenseMapInfoIS4_vEENS_6detail12DenseMapPairIS4_S7_EEEES4_S7_S9_SC_E13getBucketsEndEv(ptr noundef nonnull align 1 dereferenceable(1) %0) #0 comdat align 2 {
  %2 = alloca ptr, align 8
  store ptr %0, ptr %2, align 8
  %3 = load ptr, ptr %2, align 8
  %4 = call noundef ptr @_ZN4llvm12DenseMapBaseINS_8DenseMapIPN5clang13CXXRecordDeclESt8functionIFvS4_EENS_12DenseMapInfoIS4_vEENS_6detail12DenseMapPairIS4_S7_EEEES4_S7_S9_SC_E10getBucketsEv(ptr noundef nonnull align 1 dereferenceable(1) %3)
  %5 = call noundef i32 @_ZNK4llvm12DenseMapBaseINS_8DenseMapIPN5clang13CXXRecordDeclESt8functionIFvS4_EENS_12DenseMapInfoIS4_vEENS_6detail12DenseMapPairIS4_S7_EEEES4_S7_S9_SC_E13getNumBucketsEv(ptr noundef nonnull align 1 dereferenceable(1) %3)
  %6 = zext i32 %5 to i64
  %7 = getelementptr inbounds %"struct.llvm::detail::DenseMapPair", ptr %4, i64 %6
  ret ptr %7
}

; Function Attrs: mustprogress nounwind uwtable
define linkonce_odr hidden noundef ptr @_ZN4llvm12DenseMapBaseINS_8DenseMapIPN5clang13CXXRecordDeclESt8functionIFvS4_EENS_12DenseMapInfoIS4_vEENS_6detail12DenseMapPairIS4_S7_EEEES4_S7_S9_SC_E10getBucketsEv(ptr noundef nonnull align 1 dereferenceable(1) %0) #0 comdat align 2 {
  %2 = alloca ptr, align 8
  store ptr %0, ptr %2, align 8
  %3 = load ptr, ptr %2, align 8
  %4 = call noundef ptr @_ZNK4llvm8DenseMapIPN5clang13CXXRecordDeclESt8functionIFvS3_EENS_12DenseMapInfoIS3_vEENS_6detail12DenseMapPairIS3_S6_EEE10getBucketsEv(ptr noundef nonnull align 8 dereferenceable(20) %3)
  ret ptr %4
}

; Function Attrs: mustprogress nounwind uwtable
define linkonce_odr hidden noundef ptr @_ZN4llvm12DenseMapBaseINS_8DenseMapIPN5clang13CXXRecordDeclESt8functionIFvS4_EENS_12DenseMapInfoIS4_vEENS_6detail12DenseMapPairIS4_S7_EEEES4_S7_S9_SC_E15getTombstoneKeyEv() #0 comdat align 2 {
  %1 = call noundef ptr @_ZN4llvm12DenseMapInfoIPN5clang13CXXRecordDeclEvE15getTombstoneKeyEv()
  ret ptr %1
}

; Function Attrs: mustprogress nounwind uwtable
define linkonce_odr hidden noundef ptr @_ZN4llvm12DenseMapBaseINS_8DenseMapIPN5clang13CXXRecordDeclESt8functionIFvS4_EENS_12DenseMapInfoIS4_vEENS_6detail12DenseMapPairIS4_S7_EEEES4_S7_S9_SC_E11getEmptyKeyEv() #0 comdat align 2 {
  %1 = call noundef ptr @_ZN4llvm12DenseMapInfoIPN5clang13CXXRecordDeclEvE11getEmptyKeyEv()
  ret ptr %1
}

; Function Attrs: mustprogress nounwind uwtable
define linkonce_odr hidden noundef i32 @_ZNK4llvm12DenseMapBaseINS_8DenseMapIPN5clang13CXXRecordDeclESt8functionIFvS4_EENS_12DenseMapInfoIS4_vEENS_6detail12DenseMapPairIS4_S7_EEEES4_S7_S9_SC_E13getNumBucketsEv(ptr noundef nonnull align 1 dereferenceable(1) %0) #0 comdat align 2 {
  %2 = alloca ptr, align 8
  store ptr %0, ptr %2, align 8
  %3 = load ptr, ptr %2, align 8
  %4 = call noundef i32 @_ZNK4llvm8DenseMapIPN5clang13CXXRecordDeclESt8functionIFvS3_EENS_12DenseMapInfoIS3_vEENS_6detail12DenseMapPairIS3_S6_EEE13getNumBucketsEv(ptr noundef nonnull align 8 dereferenceable(20) %3)
  ret i32 %4
}

; Function Attrs: mustprogress nounwind uwtable
define linkonce_odr hidden void @_ZN4llvm12DenseMapBaseINS_8DenseMapIPN5clang13CXXRecordDeclESt8functionIFvS4_EENS_12DenseMapInfoIS4_vEENS_6detail12DenseMapPairIS4_S7_EEEES4_S7_S9_SC_E10destroyAllEv(ptr noundef nonnull align 1 dereferenceable(1) %0) #0 comdat align 2 {
  %2 = alloca ptr, align 8
  %3 = alloca ptr, align 8
  %4 = alloca ptr, align 8
  %5 = alloca ptr, align 8
  %6 = alloca ptr, align 8
  store ptr %0, ptr %2, align 8
  %7 = load ptr, ptr %2, align 8
  %8 = call noundef i32 @_ZNK4llvm12DenseMapBaseINS_8DenseMapIPN5clang13CXXRecordDeclESt8functionIFvS4_EENS_12DenseMapInfoIS4_vEENS_6detail12DenseMapPairIS4_S7_EEEES4_S7_S9_SC_E13getNumBucketsEv(ptr noundef nonnull align 1 dereferenceable(1) %7)
  %9 = icmp eq i32 %8, 0
  br i1 %9, label %10, label %11

10:                                               ; preds = %1
  br label %41

11:                                               ; preds = %1
  %12 = call noundef ptr @_ZN4llvm12DenseMapBaseINS_8DenseMapIPN5clang13CXXRecordDeclESt8functionIFvS4_EENS_12DenseMapInfoIS4_vEENS_6detail12DenseMapPairIS4_S7_EEEES4_S7_S9_SC_E11getEmptyKeyEv()
  store ptr %12, ptr %3, align 8
  %13 = call noundef ptr @_ZN4llvm12DenseMapBaseINS_8DenseMapIPN5clang13CXXRecordDeclESt8functionIFvS4_EENS_12DenseMapInfoIS4_vEENS_6detail12DenseMapPairIS4_S7_EEEES4_S7_S9_SC_E15getTombstoneKeyEv()
  store ptr %13, ptr %4, align 8
  %14 = call noundef ptr @_ZN4llvm12DenseMapBaseINS_8DenseMapIPN5clang13CXXRecordDeclESt8functionIFvS4_EENS_12DenseMapInfoIS4_vEENS_6detail12DenseMapPairIS4_S7_EEEES4_S7_S9_SC_E10getBucketsEv(ptr noundef nonnull align 1 dereferenceable(1) %7)
  store ptr %14, ptr %5, align 8
  %15 = call noundef ptr @_ZN4llvm12DenseMapBaseINS_8DenseMapIPN5clang13CXXRecordDeclESt8functionIFvS4_EENS_12DenseMapInfoIS4_vEENS_6detail12DenseMapPairIS4_S7_EEEES4_S7_S9_SC_E13getBucketsEndEv(ptr noundef nonnull align 1 dereferenceable(1) %7)
  store ptr %15, ptr %6, align 8
  br label %16

16:                                               ; preds = %38, %11
  %17 = load ptr, ptr %5, align 8
  %18 = load ptr, ptr %6, align 8
  %19 = icmp ne ptr %17, %18
  br i1 %19, label %20, label %41

20:                                               ; preds = %16
  %21 = load ptr, ptr %5, align 8
  %22 = call noundef nonnull align 8 dereferenceable(8) ptr @_ZN4llvm6detail12DenseMapPairIPN5clang13CXXRecordDeclESt8functionIFvS4_EEE8getFirstEv(ptr noundef nonnull align 8 dereferenceable(40) %21)
  %23 = load ptr, ptr %22, align 8
  %24 = load ptr, ptr %3, align 8
  %25 = call noundef zeroext i1 @_ZN4llvm12DenseMapInfoIPN5clang13CXXRecordDeclEvE7isEqualEPKS2_S6_(ptr noundef %23, ptr noundef %24)
  br i1 %25, label %35, label %26

26:                                               ; preds = %20
  %27 = load ptr, ptr %5, align 8
  %28 = call noundef nonnull align 8 dereferenceable(8) ptr @_ZN4llvm6detail12DenseMapPairIPN5clang13CXXRecordDeclESt8functionIFvS4_EEE8getFirstEv(ptr noundef nonnull align 8 dereferenceable(40) %27)
  %29 = load ptr, ptr %28, align 8
  %30 = load ptr, ptr %4, align 8
  %31 = call noundef zeroext i1 @_ZN4llvm12DenseMapInfoIPN5clang13CXXRecordDeclEvE7isEqualEPKS2_S6_(ptr noundef %29, ptr noundef %30)
  br i1 %31, label %35, label %32

32:                                               ; preds = %26
  %33 = load ptr, ptr %5, align 8
  %34 = call noundef nonnull align 8 dereferenceable(32) ptr @_ZN4llvm6detail12DenseMapPairIPN5clang13CXXRecordDeclESt8functionIFvS4_EEE9getSecondEv(ptr noundef nonnull align 8 dereferenceable(40) %33)
  call void @_ZNSt8functionIFvPN5clang13CXXRecordDeclEEED2Ev(ptr noundef nonnull align 8 dereferenceable(32) %34) #10
  br label %35

35:                                               ; preds = %32, %26, %20
  %36 = load ptr, ptr %5, align 8
  %37 = call noundef nonnull align 8 dereferenceable(8) ptr @_ZN4llvm6detail12DenseMapPairIPN5clang13CXXRecordDeclESt8functionIFvS4_EEE8getFirstEv(ptr noundef nonnull align 8 dereferenceable(40) %36)
  br label %38

38:                                               ; preds = %35
  %39 = load ptr, ptr %5, align 8
  %40 = getelementptr inbounds %"struct.llvm::detail::DenseMapPair", ptr %39, i32 1
  store ptr %40, ptr %5, align 8
  br label %16, !llvm.loop !8

41:                                               ; preds = %16, %10
  ret void
}

; Function Attrs: mustprogress nounwind uwtable
define linkonce_odr hidden void @_ZN4llvm8DenseMapIPN5clang13CXXRecordDeclESt8functionIFvS3_EENS_12DenseMapInfoIS3_vEENS_6detail12DenseMapPairIS3_S6_EEED2Ev(ptr noundef nonnull align 8 dereferenceable(20) %0) unnamed_addr #0 comdat align 2 {
  %2 = alloca ptr, align 8
  store ptr %0, ptr %2, align 8
  %3 = load ptr, ptr %2, align 8
  call void @_ZN4llvm12DenseMapBaseINS_8DenseMapIPN5clang13CXXRecordDeclESt8functionIFvS4_EENS_12DenseMapInfoIS4_vEENS_6detail12DenseMapPairIS4_S7_EEEES4_S7_S9_SC_E10destroyAllEv(ptr noundef nonnull align 1 dereferenceable(1) %3)
  %4 = getelementptr inbounds nuw %"class.llvm::DenseMap", ptr %3, i32 0, i32 0
  %5 = load ptr, ptr %4, align 8
  %6 = getelementptr inbounds nuw %"class.llvm::DenseMap", ptr %3, i32 0, i32 3
  %7 = load i32, ptr %6, align 8
  %8 = zext i32 %7 to i64
  %9 = mul i64 40, %8
  call void @_ZN4llvm17deallocate_bufferEPvmm(ptr noundef %5, i64 noundef %9, i64 noundef 8)
  ret void
}

; Function Attrs: mustprogress nounwind uwtable
define dso_local void @_ZN5clang22HLSLExternalSemaSourceD2Ev(ptr noundef nonnull align 8 dereferenceable(56) %0) unnamed_addr #0 align 2 {
  %2 = alloca ptr, align 8
  store ptr %0, ptr %2, align 8
  %3 = load ptr, ptr %2, align 8
  store ptr getelementptr inbounds inrange(-16, 392) ({ [51 x ptr] }, ptr @_ZTVN5clang22HLSLExternalSemaSourceE, i32 0, i32 0, i32 2), ptr %3, align 8
  %4 = getelementptr inbounds nuw %"class.clang::HLSLExternalSemaSource", ptr %3, i32 0, i32 3
  call void @_ZN4llvm8DenseMapIPN5clang13CXXRecordDeclESt8functionIFvS3_EENS_12DenseMapInfoIS3_vEENS_6detail12DenseMapPairIS3_S6_EEED2Ev(ptr noundef nonnull align 8 dereferenceable(20) %4) #10
  call void @_ZN5clang18ExternalSemaSourceD2Ev(ptr noundef nonnull align 8 dereferenceable(16) %3) #10
  ret void
}