; Function Attrs: mustprogress nounwind uwtable
define dso_local void @_ZN5clang22HLSLExternalSemaSourceD2Ev(ptr noundef nonnull align 8 dereferenceable(56) %0) unnamed_addr #0 align 2 {
  store ptr getelementptr inbounds inrange(-16, 392) (i8, ptr @_ZTVN5clang22HLSLExternalSemaSourceE, i64 16), ptr %0, align 8
  %2 = getelementptr inbounds nuw i8, ptr %0, i64 32
  %3 = getelementptr inbounds i8, ptr %0, i64 48
  %4 = load i32, ptr %3, align 8
  %5 = icmp eq i32 %4, 0
  %.pre1.i = load ptr, ptr %2, align 8
  br i1 %5, label %_ZN4llvm8DenseMapIPN5clang13CXXRecordDeclESt8functionIFvS3_EENS_12DenseMapInfoIS3_vEENS_6detail12DenseMapPairIS3_S6_EEED2Ev.exit, label %.lr.ph.preheader.i.i

.lr.ph.preheader.i.i:                             ; preds = %1
  %6 = zext i32 %4 to i64
  %7 = getelementptr inbounds %"struct.llvm::detail::DenseMapPair", ptr %.pre1.i, i64 %6
  br label %.lr.ph.i.i

.lr.ph.i.i:                                       ; preds = %_ZNSt8functionIFvPN5clang13CXXRecordDeclEEED2Ev.exit.i.i, %.lr.ph.preheader.i.i
  %.011.i.i = phi ptr [ %15, %_ZNSt8functionIFvPN5clang13CXXRecordDeclEEED2Ev.exit.i.i ], [ %.pre1.i, %.lr.ph.preheader.i.i ]
  %8 = load ptr, ptr %.011.i.i, align 8
  %magicptr.i.i = ptrtoint ptr %8 to i64
  switch i64 %magicptr.i.i, label %9 [
    i64 -4096, label %_ZNSt8functionIFvPN5clang13CXXRecordDeclEEED2Ev.exit.i.i
    i64 -8192, label %_ZNSt8functionIFvPN5clang13CXXRecordDeclEEED2Ev.exit.i.i
  ]

9:                                                ; preds = %.lr.ph.i.i
  %10 = getelementptr inbounds i8, ptr %.011.i.i, i64 24
  %11 = load ptr, ptr %10, align 8
  %.not.i.i.i.i = icmp eq ptr %11, null
  br i1 %.not.i.i.i.i, label %_ZNSt8functionIFvPN5clang13CXXRecordDeclEEED2Ev.exit.i.i, label %12

12:                                               ; preds = %9
  %13 = getelementptr inbounds nuw i8, ptr %.011.i.i, i64 8
  %14 = tail call noundef zeroext i1 %11(ptr noundef nonnull align 8 dereferenceable(16) %13, ptr noundef nonnull align 8 dereferenceable(16) %13, i32 noundef 3) #14
  br label %_ZNSt8functionIFvPN5clang13CXXRecordDeclEEED2Ev.exit.i.i

_ZNSt8functionIFvPN5clang13CXXRecordDeclEEED2Ev.exit.i.i: ; preds = %12, %9, %.lr.ph.i.i, %.lr.ph.i.i
  %15 = getelementptr inbounds i8, ptr %.011.i.i, i64 40
  %.not.i.i = icmp eq ptr %15, %7
  br i1 %.not.i.i, label %_ZN4llvm12DenseMapBaseINS_8DenseMapIPN5clang13CXXRecordDeclESt8functionIFvS4_EENS_12DenseMapInfoIS4_vEENS_6detail12DenseMapPairIS4_S7_EEEES4_S7_S9_SC_E10destroyAllEv.exit.loopexit.i, label %.lr.ph.i.i, !llvm.loop !4

_ZN4llvm12DenseMapBaseINS_8DenseMapIPN5clang13CXXRecordDeclESt8functionIFvS4_EENS_12DenseMapInfoIS4_vEENS_6detail12DenseMapPairIS4_S7_EEEES4_S7_S9_SC_E10destroyAllEv.exit.loopexit.i: ; preds = %_ZNSt8functionIFvPN5clang13CXXRecordDeclEEED2Ev.exit.i.i
  %.pre.i = load ptr, ptr %2, align 8
  %.pre2.i = load i32, ptr %3, align 8
  %16 = zext i32 %.pre2.i to i64
  %17 = mul nuw nsw i64 %16, 40
  br label %_ZN4llvm8DenseMapIPN5clang13CXXRecordDeclESt8functionIFvS3_EENS_12DenseMapInfoIS3_vEENS_6detail12DenseMapPairIS3_S6_EEED2Ev.exit

_ZN4llvm8DenseMapIPN5clang13CXXRecordDeclESt8functionIFvS3_EENS_12DenseMapInfoIS3_vEENS_6detail12DenseMapPairIS3_S6_EEED2Ev.exit: ; preds = %1, %_ZN4llvm12DenseMapBaseINS_8DenseMapIPN5clang13CXXRecordDeclESt8functionIFvS4_EENS_12DenseMapInfoIS4_vEENS_6detail12DenseMapPairIS4_S7_EEEES4_S7_S9_SC_E10destroyAllEv.exit.loopexit.i
  %18 = phi i64 [ %17, %_ZN4llvm12DenseMapBaseINS_8DenseMapIPN5clang13CXXRecordDeclESt8functionIFvS4_EENS_12DenseMapInfoIS4_vEENS_6detail12DenseMapPairIS4_S7_EEEES4_S7_S9_SC_E10destroyAllEv.exit.loopexit.i ], [ 0, %1 ]
  %19 = phi ptr [ %.pre.i, %_ZN4llvm12DenseMapBaseINS_8DenseMapIPN5clang13CXXRecordDeclESt8functionIFvS4_EENS_12DenseMapInfoIS4_vEENS_6detail12DenseMapPairIS4_S7_EEEES4_S7_S9_SC_E10destroyAllEv.exit.loopexit.i ], [ %.pre1.i, %1 ]
  tail call void @_ZN4llvm17deallocate_bufferEPvmm(ptr noundef %19, i64 noundef %18, i64 noundef 8) #14
  tail call void @_ZN5clang18ExternalSemaSourceD2Ev(ptr noundef nonnull align 8 dereferenceable(16) %0) #14
  ret void
}